; Function Attrs: mustprogress uwtable
define dso_local noundef nonnull align 8 dereferenceable(8) ptr @_ZN5vcpkg4Json5Array9push_backEONS0_5ValueE(ptr noundef nonnull align 8 dereferenceable(24) %0, ptr noundef nonnull align 8 dereferenceable(8) %1) local_unnamed_addr #8 align 2 {
  %3 = getelementptr inbounds i8, ptr %0, i64 8
  %4 = load ptr, ptr %3, align 8
  %5 = getelementptr inbounds i8, ptr %0, i64 16
  %6 = load ptr, ptr %5, align 8
  %.not.i = icmp eq ptr %4, %6
  br i1 %.not.i, label %11, label %7

7:                                                ; preds = %2
  %8 = load i64, ptr %1, align 8
  store i64 %8, ptr %4, align 8
  store ptr null, ptr %1, align 8
  %9 = load ptr, ptr %3, align 8
  %10 = getelementptr inbounds i8, ptr %9, i64 8
  store ptr %10, ptr %3, align 8
  br label %_ZNSt6vectorIN5vcpkg4Json5ValueESaIS2_EE12emplace_backIJS2_EEERS2_DpOT_.exit

11:                                               ; preds = %2
  tail call void @_ZNSt6vectorIN5vcpkg4Json5ValueESaIS2_EE17_M_realloc_insertIJS2_EEEvN9__gnu_cxx17__normal_iteratorIPS2_S4_EEDpOT_(ptr noundef nonnull align 8 dereferenceable(24) %0, ptr %4, ptr noundef nonnull align 8 dereferenceable(8) %1)
  %.pre.i = load ptr, ptr %3, align 8
  br label %_ZNSt6vectorIN5vcpkg4Json5ValueESaIS2_EE12emplace_backIJS2_EEERS2_DpOT_.exit

_ZNSt6vectorIN5vcpkg4Json5ValueESaIS2_EE12emplace_backIJS2_EEERS2_DpOT_.exit: ; preds = %7, %11
  %12 = phi ptr [ %.pre.i, %11 ], [ %10, %7 ]
  %13 = getelementptr inbounds i8, ptr %12, i64 -8
  ret ptr %13
}